target datalayout = "e-m:e-p270:32:32-p271:32:32-p272:64:64-i64:64-i128:128-f80:128-n8:16:32:64-S128"
target triple = "x86_64-pc-linux-gnu"

%struct.BackendGlobalData = type <{ ptr, ptr, i8, i8, i8, i8, i8, i8, i8, i8, i8, [3 x i8], i32, ptr, ptr, ptr, ptr, ptr, ptr, ptr, ptr, ptr, ptr, ptr, ptr, ptr, i32, %struct.jvmtiCapabilities, i8, [3 x i8], %struct.jvmtiEventCallbacks, ptr, ptr, ptr, ptr, ptr, ptr, ptr, i32, [4 x i8], ptr, i64, i32, [4 x i8], ptr, i32, i32, i8, i8, [6 x i8] }>
%struct.jvmtiCapabilities = type { i64, i64 }
%struct.jvmtiEventCallbacks = type { ptr, ptr, ptr, ptr, ptr, ptr, ptr, ptr, ptr, ptr, ptr, ptr, ptr, ptr, ptr, ptr, ptr, ptr, ptr, ptr, ptr, ptr, ptr, ptr, ptr, ptr, ptr, ptr, ptr, ptr, ptr, ptr, ptr, ptr, ptr, ptr, ptr, ptr, ptr }
%struct.RefNode = type { i64, ptr, ptr, i32, i8, i8 }

@gdata = external global ptr, align 8

; Function Attrs: nounwind uwtable
define internal i32 @hashBucket(i64 noundef %0) #0 {
  %2 = alloca i64, align 8
  store i64 %0, ptr %2, align 8
  %3 = load i64, ptr %2, align 8
  %4 = trunc i64 %3 to i32
  %5 = load ptr, ptr @gdata, align 8
  %6 = getelementptr inbounds %struct.BackendGlobalData, ptr %5, i32 0, i32 45
  %7 = load i32, ptr %6, align 8
  %8 = sub nsw i32 %7, 1
  %9 = and i32 %4, %8
  ret i32 %9
}

; Function Attrs: nounwind uwtable
define internal ptr @findNodeByID(ptr noundef %0, i64 noundef %1) #0 {
  %3 = alloca ptr, align 8
  %4 = alloca i64, align 8
  %5 = alloca i32, align 4
  %6 = alloca ptr, align 8
  %7 = alloca ptr, align 8
  store ptr %0, ptr %3, align 8
  store i64 %1, ptr %4, align 8
  %8 = load i64, ptr %4, align 8
  %9 = call i32 @hashBucket(i64 noundef %8)
  store i32 %9, ptr %5, align 4
  %10 = load ptr, ptr @gdata, align 8
  %11 = getelementptr inbounds %struct.BackendGlobalData, ptr %10, i32 0, i32 44
  %12 = load ptr, ptr %11, align 8
  %13 = load i32, ptr %5, align 4
  %14 = sext i32 %13 to i64
  %15 = getelementptr inbounds ptr, ptr %12, i64 %14
  %16 = load ptr, ptr %15, align 8
  store ptr %16, ptr %6, align 8
  store ptr null, ptr %7, align 8
  br label %17

17:                                               ; preds = %52, %2
  %18 = load ptr, ptr %6, align 8
  %19 = icmp ne ptr %18, null
  br i1 %19, label %20, label %56

20:                                               ; preds = %17
  %21 = load i64, ptr %4, align 8
  %22 = load ptr, ptr %6, align 8
  %23 = getelementptr inbounds %struct.RefNode, ptr %22, i32 0, i32 0
  %24 = load i64, ptr %23, align 8
  %25 = icmp eq i64 %21, %24
  br i1 %25, label %26, label %52

26:                                               ; preds = %20
  %27 = load ptr, ptr %7, align 8
  %28 = icmp ne ptr %27, null
  br i1 %28, label %29, label %51

29:                                               ; preds = %26
  %30 = load ptr, ptr %6, align 8
  %31 = getelementptr inbounds %struct.RefNode, ptr %30, i32 0, i32 2
  %32 = load ptr, ptr %31, align 8
  %33 = load ptr, ptr %7, align 8
  %34 = getelementptr inbounds %struct.RefNode, ptr %33, i32 0, i32 2
  store ptr %32, ptr %34, align 8
  %35 = load ptr, ptr @gdata, align 8
  %36 = getelementptr inbounds %struct.BackendGlobalData, ptr %35, i32 0, i32 44
  %37 = load ptr, ptr %36, align 8
  %38 = load i32, ptr %5, align 4
  %39 = sext i32 %38 to i64
  %40 = getelementptr inbounds ptr, ptr %37, i64 %39
  %41 = load ptr, ptr %40, align 8
  %42 = load ptr, ptr %6, align 8
  %43 = getelementptr inbounds %struct.RefNode, ptr %42, i32 0, i32 2
  store ptr %41, ptr %43, align 8
  %44 = load ptr, ptr %6, align 8
  %45 = load ptr, ptr @gdata, align 8
  %46 = getelementptr inbounds %struct.BackendGlobalData, ptr %45, i32 0, i32 44
  %47 = load ptr, ptr %46, align 8
  %48 = load i32, ptr %5, align 4
  %49 = sext i32 %48 to i64
  %50 = getelementptr inbounds ptr, ptr %47, i64 %49
  store ptr %44, ptr %50, align 8
  br label %51

51:                                               ; preds = %29, %26
  br label %56

52:                                               ; preds = %20
  %53 = load ptr, ptr %6, align 8
  %54 = getelementptr inbounds %struct.RefNode, ptr %53, i32 0, i32 2
  %55 = load ptr, ptr %54, align 8
  store ptr %55, ptr %6, align 8
  br label %17, !llvm.loop !11

56:                                               ; preds = %51, %17
  %57 = load ptr, ptr %6, align 8
  ret ptr %57
}

; Function Attrs: nounwind uwtable
define hidden i32 @commonRef_unpin(i64 noundef %0) #0 {
  %2 = alloca i64, align 8
  %3 = alloca i32, align 4
  %4 = alloca ptr, align 8
  %5 = alloca ptr, align 8
  %6 = alloca ptr, align 8
  store i64 %0, ptr %2, align 8
  store i32 0, ptr %3, align 4
  %7 = load ptr, ptr @gdata, align 8
  %8 = getelementptr inbounds %struct.BackendGlobalData, ptr %7, i32 0, i32 40
  %9 = load ptr, ptr %8, align 8
  call void @debugMonitorEnter(ptr noundef %9)
  %10 = call ptr @getEnv()
  store ptr %10, ptr %4, align 8
  %11 = load ptr, ptr %4, align 8
  %12 = load i64, ptr %2, align 8
  %13 = call ptr @findNodeByID(ptr noundef %11, i64 noundef %12)
  store ptr %13, ptr %5, align 8
  %14 = load ptr, ptr %5, align 8
  %15 = icmp ne ptr %14, null
  br i1 %15, label %16, label %24

16:                                               ; preds = %1
  %17 = load ptr, ptr %4, align 8
  %18 = load ptr, ptr %5, align 8
  %19 = call ptr @weakenNode(ptr noundef %17, ptr noundef %18, i8 noundef zeroext 0)
  store ptr %19, ptr %6, align 8
  %20 = load ptr, ptr %6, align 8
  %21 = icmp eq ptr %20, null
  br i1 %21, label %22, label %23

22:                                               ; preds = %16
  store i32 188, ptr %3, align 4
  br label %23

23:                                               ; preds = %22, %16
  br label %24

24:                                               ; preds = %23, %1
  %25 = load ptr, ptr @gdata, align 8
  %26 = getelementptr inbounds %struct.BackendGlobalData, ptr %25, i32 0, i32 40
  %27 = load ptr, ptr %26, align 8
  call void @debugMonitorExit(ptr noundef %27)
  %28 = load i32, ptr %3, align 4
  ret i32 %28
}