; Function Attrs: nounwind uwtable
define hidden range(i32 0, 189) i32 @commonRef_unpin(i64 noundef %0) local_unnamed_addr #0 {
  %2 = load ptr, ptr @gdata, align 8
  %3 = getelementptr inbounds i8, ptr %2, i64 536
  %4 = load ptr, ptr %3, align 8
  tail call void @debugMonitorEnter(ptr noundef %4) #5
  %5 = tail call ptr @getEnv() #5
  %6 = trunc i64 %0 to i32
  %7 = load ptr, ptr @gdata, align 8
  %8 = getelementptr inbounds i8, ptr %7, i64 568
  %9 = load i32, ptr %8, align 8
  %10 = add nsw i32 %9, -1
  %11 = and i32 %10, %6
  %12 = getelementptr inbounds i8, ptr %7, i64 560
  %13 = load ptr, ptr %12, align 8
  %14 = sext i32 %11 to i64
  %15 = getelementptr inbounds ptr, ptr %13, i64 %14
  %.01.i = load ptr, ptr %15, align 8
  %.not2.i = icmp eq ptr %.01.i, null
  br i1 %.not2.i, label %findNodeByID.exit.thread, label %.lr.ph.i

.lr.ph.i:                                         ; preds = %1, %18
  %.03.i = phi ptr [ %.0.i, %18 ], [ %.01.i, %1 ]
  %16 = load i64, ptr %.03.i, align 8
  %17 = icmp eq i64 %16, %0
  br i1 %17, label %findNodeByID.exit, label %18

18:                                               ; preds = %.lr.ph.i
  %19 = getelementptr inbounds i8, ptr %.03.i, i64 16
  %.0.i = load ptr, ptr %19, align 8
  %.not.i = icmp eq ptr %.0.i, null
  br i1 %.not.i, label %findNodeByID.exit.thread, label %.lr.ph.i, !llvm.loop !11

findNodeByID.exit:                                ; preds = %.lr.ph.i
  %20 = tail call fastcc ptr @weakenNode(ptr noundef %5, ptr noundef nonnull %.03.i, i8 noundef zeroext 0)
  %21 = icmp eq ptr %20, null
  %spec.select = select i1 %21, i32 188, i32 0
  %.pre = load ptr, ptr @gdata, align 8
  br label %findNodeByID.exit.thread

findNodeByID.exit.thread:                         ; preds = %18, %1, %findNodeByID.exit
  %22 = phi ptr [ %.pre, %findNodeByID.exit ], [ %7, %1 ], [ %7, %18 ]
  %.0 = phi i32 [ %spec.select, %findNodeByID.exit ], [ 0, %1 ], [ 0, %18 ]
  %23 = getelementptr inbounds i8, ptr %22, i64 536
  %24 = load ptr, ptr %23, align 8
  tail call void @debugMonitorExit(ptr noundef %24) #5
  ret i32 %.0
}